target datalayout = "e-m:e-p270:32:32-p271:32:32-p272:64:64-i64:64-i128:128-f80:128-n8:16:32:64-S128"
target triple = "x86_64-unknown-linux-gnu"

%"class.nla::emonics" = type { %class.trail_stack, %class.union_find, %class.svector, ptr, %class.vector.1, %class.svector, i32, %class.svector.2, %"struct.nla::emonics::hash_canonical", %"struct.nla::emonics::eq_canonical", %class.map }
%class.trail_stack = type { %class.ptr_vector, %class.svector, %class.region }
%class.ptr_vector = type { %class.vector }
%class.vector = type { ptr }
%class.region = type { ptr, ptr, ptr, ptr, ptr }
%class.union_find = type { ptr, ptr, %class.svector, %class.svector, %class.svector, %"class.union_find<nla::emonics>::mk_var_trail" }
%"class.union_find<nla::emonics>::mk_var_trail" = type { %class.trail, ptr }
%class.trail = type { ptr }
%class.vector.1 = type { ptr }
%class.svector = type { %class.vector.0 }
%class.vector.0 = type { ptr }
%class.svector.2 = type { %class.vector.3 }
%class.vector.3 = type { ptr }
%"struct.nla::emonics::hash_canonical" = type { ptr }
%"struct.nla::emonics::eq_canonical" = type { ptr }
%class.map = type { %class.table2map }
%class.table2map = type { %class.core_hashtable }
%class.core_hashtable = type <{ %"struct.table2map<default_map_entry<unsigned int, svector<unsigned int>>, nla::emonics::hash_canonical, nla::emonics::eq_canonical>::entry_hash_proc", %"struct.table2map<default_map_entry<unsigned int, svector<unsigned int>>, nla::emonics::hash_canonical, nla::emonics::eq_canonical>::entry_eq_proc", ptr, i32, i32, i32, [4 x i8] }>
%"struct.table2map<default_map_entry<unsigned int, svector<unsigned int>>, nla::emonics::hash_canonical, nla::emonics::eq_canonical>::entry_hash_proc" = type { %"struct.nla::emonics::hash_canonical" }
%"struct.table2map<default_map_entry<unsigned int, svector<unsigned int>>, nla::emonics::hash_canonical, nla::emonics::eq_canonical>::entry_eq_proc" = type { %"struct.nla::emonics::eq_canonical" }
%"struct.nla::emonics::head_tail" = type { ptr, ptr }
%"struct.nla::emonics::cell" = type <{ ptr, i32, [4 x i8] }>

; Function Attrs: mustprogress nounwind uwtable
define linkonce_odr hidden void @_ZdlPvR6region(ptr noundef %0, ptr noundef nonnull align 8 dereferenceable(40) %1) #4 comdat {
entry:
  %.addr = alloca ptr, align 8
  %.addr1 = alloca ptr, align 8
  store ptr %0, ptr %.addr, align 8
  store ptr %1, ptr %.addr1, align 8
  ret void
}

; Function Attrs: mustprogress nounwind uwtable
define linkonce_odr hidden void @_ZN3nla7emonics4cellC2EjPS1_(ptr noundef nonnull align 8 dereferenceable(12) %this, i32 noundef %mIndex, ptr noundef %c) unnamed_addr #4 comdat align 2 {
entry:
  %this.addr = alloca ptr, align 8
  %mIndex.addr = alloca i32, align 4
  %c.addr = alloca ptr, align 8
  store ptr %this, ptr %this.addr, align 8
  store i32 %mIndex, ptr %mIndex.addr, align 4
  store ptr %c, ptr %c.addr, align 8
  %this1 = load ptr, ptr %this.addr, align 8
  %m_next = getelementptr inbounds %"struct.nla::emonics::cell", ptr %this1, i32 0, i32 0
  %0 = load ptr, ptr %c.addr, align 8
  store ptr %0, ptr %m_next, align 8
  %m_index = getelementptr inbounds %"struct.nla::emonics::cell", ptr %this1, i32 0, i32 1
  %1 = load i32, ptr %mIndex.addr, align 4
  store i32 %1, ptr %m_index, align 8
  ret void
}

; Function Attrs: mustprogress uwtable
define linkonce_odr hidden noundef ptr @_ZnwmR6region(i64 noundef %s, ptr noundef nonnull align 8 dereferenceable(40) %r) #5 comdat {
entry:
  %s.addr = alloca i64, align 8
  %r.addr = alloca ptr, align 8
  store i64 %s, ptr %s.addr, align 8
  store ptr %r, ptr %r.addr, align 8
  %0 = load ptr, ptr %r.addr, align 8
  %1 = load i64, ptr %s.addr, align 8
  %call = call noundef ptr @_ZN6region8allocateEm(ptr noundef nonnull align 8 dereferenceable(40) %0, i64 noundef %1)
  ret ptr %call
}

; Function Attrs: mustprogress nounwind uwtable
define linkonce_odr hidden noundef nonnull align 8 dereferenceable(40) ptr @_ZN11trail_stack10get_regionEv(ptr noundef nonnull align 8 dereferenceable(56) %this) #4 comdat align 2 {
entry:
  %this.addr = alloca ptr, align 8
  store ptr %this, ptr %this.addr, align 8
  %this1 = load ptr, ptr %this.addr, align 8
  %m_region = getelementptr inbounds %class.trail_stack, ptr %this1, i32 0, i32 2
  ret ptr %m_region
}

; Function Attrs: mustprogress uwtable
define hidden void @_ZN3nla7emonics11insert_cellERNS0_9head_tailEj(ptr noundef nonnull align 8 dereferenceable(216) %this, ptr noundef nonnull align 8 dereferenceable(16) %v, i32 noundef %mIndex) #5 align 2 personality ptr @__gxx_personality_v0 {
entry:
  %this.addr = alloca ptr, align 8
  %v.addr = alloca ptr, align 8
  %mIndex.addr = alloca i32, align 4
  %cur_head = alloca ptr, align 8
  %cur_tail = alloca ptr, align 8
  %new_head = alloca ptr, align 8
  %exn.slot = alloca ptr, align 8
  %ehselector.slot = alloca i32, align 4
  store ptr %this, ptr %this.addr, align 8
  store ptr %v, ptr %v.addr, align 8
  store i32 %mIndex, ptr %mIndex.addr, align 4
  %this1 = load ptr, ptr %this.addr, align 8
  %0 = load ptr, ptr %v.addr, align 8
  %m_head = getelementptr inbounds %"struct.nla::emonics::head_tail", ptr %0, i32 0, i32 0
  store ptr %m_head, ptr %cur_head, align 8
  %1 = load ptr, ptr %v.addr, align 8
  %m_tail = getelementptr inbounds %"struct.nla::emonics::head_tail", ptr %1, i32 0, i32 1
  store ptr %m_tail, ptr %cur_tail, align 8
  %m_u_f_stack = getelementptr inbounds %"class.nla::emonics", ptr %this1, i32 0, i32 0
  %call = call noundef nonnull align 8 dereferenceable(40) ptr @_ZN11trail_stack10get_regionEv(ptr noundef nonnull align 8 dereferenceable(56) %m_u_f_stack)
  %call2 = call noundef ptr @_ZnwmR6region(i64 noundef 16, ptr noundef nonnull align 8 dereferenceable(40) %call)
  %2 = load i32, ptr %mIndex.addr, align 4
  %3 = load ptr, ptr %cur_head, align 8
  %4 = load ptr, ptr %3, align 8
  invoke void @_ZN3nla7emonics4cellC2EjPS1_(ptr noundef nonnull align 8 dereferenceable(12) %call2, i32 noundef %2, ptr noundef %4)
          to label %invoke.cont unwind label %lpad

invoke.cont:                                      ; preds = %entry
  store ptr %call2, ptr %new_head, align 8
  %5 = load ptr, ptr %new_head, align 8
  %6 = load ptr, ptr %cur_head, align 8
  store ptr %5, ptr %6, align 8
  %7 = load ptr, ptr %cur_tail, align 8
  %8 = load ptr, ptr %7, align 8
  %tobool = icmp ne ptr %8, null
  br i1 %tobool, label %if.end, label %if.then

if.then:                                          ; preds = %invoke.cont
  %9 = load ptr, ptr %new_head, align 8
  %10 = load ptr, ptr %cur_tail, align 8
  store ptr %9, ptr %10, align 8
  br label %if.end

lpad:                                             ; preds = %entry
  %11 = landingpad { ptr, i32 }
          cleanup
  %12 = extractvalue { ptr, i32 } %11, 0
  store ptr %12, ptr %exn.slot, align 8
  %13 = extractvalue { ptr, i32 } %11, 1
  store i32 %13, ptr %ehselector.slot, align 4
  call void @_ZdlPvR6region(ptr noundef %call2, ptr noundef nonnull align 8 dereferenceable(40) %call) #3
  br label %eh.resume

if.end:                                           ; preds = %if.then, %invoke.cont
  %14 = load ptr, ptr %new_head, align 8
  %15 = load ptr, ptr %cur_tail, align 8
  %16 = load ptr, ptr %15, align 8
  %m_next = getelementptr inbounds %"struct.nla::emonics::cell", ptr %16, i32 0, i32 0
  store ptr %14, ptr %m_next, align 8
  ret void

eh.resume:                                        ; preds = %lpad
  %exn = load ptr, ptr %exn.slot, align 8
  %sel = load i32, ptr %ehselector.slot, align 4
  %lpad.val = insertvalue { ptr, i32 } poison, ptr %exn, 0
  %lpad.val3 = insertvalue { ptr, i32 } %lpad.val, i32 %sel, 1
  resume { ptr, i32 } %lpad.val3
}