; Function Attrs: mustprogress uwtable
define hidden void @_ZN3nla7emonics11insert_cellERNS0_9head_tailEj(ptr noundef nonnull align 8 dereferenceable(216) %this, ptr nocapture noundef nonnull align 8 dereferenceable(16) %v, i32 noundef %mIndex) local_unnamed_addr #4 align 2 personality ptr @__gxx_personality_v0 {
entry:
  %m_tail = getelementptr inbounds i8, ptr %v, i64 8
  %m_region.i = getelementptr inbounds i8, ptr %this, i64 16
  %call.i = tail call noundef ptr @_ZN6region8allocateEm(ptr noundef nonnull align 8 dereferenceable(40) %m_region.i, i64 noundef 16)
  %0 = load ptr, ptr %v, align 8
  store ptr %0, ptr %call.i, align 8
  %m_index.i = getelementptr inbounds i8, ptr %call.i, i64 8
  store i32 %mIndex, ptr %m_index.i, align 8
  store ptr %call.i, ptr %v, align 8
  %1 = load ptr, ptr %m_tail, align 8
  %tobool.not = icmp eq ptr %1, null
  br i1 %tobool.not, label %if.then, label %if.end

if.then:                                          ; preds = %entry
  store ptr %call.i, ptr %m_tail, align 8
  br label %if.end

if.end:                                           ; preds = %if.then, %entry
  %2 = phi ptr [ %call.i, %if.then ], [ %1, %entry ]
  store ptr %call.i, ptr %2, align 8
  ret void
}